target datalayout = "e-m:e-p270:32:32-p271:32:32-p272:64:64-i64:64-i128:128-f80:128-n8:16:32:64-S128"
target triple = "x86_64-pc-linux-gnu"

%struct.AVFilterContext = type { ptr, ptr, ptr, ptr, ptr, i32, ptr, ptr, i32, ptr, ptr, i32, i32, ptr, ptr, ptr, ptr, i32, ptr, i32, i32 }
%struct.BackgroundkeyContext = type { ptr, float, float, float, i32, i32, i32, i32, i64, ptr, ptr, ptr }
%struct.AVFilterLink = type { ptr, ptr, ptr, ptr, i32, i32, i32, i32, %struct.AVRational, i32, i32, i32, %struct.AVChannelLayout, %struct.AVRational, ptr, i32, %struct.AVFilterFormatsConfig, %struct.AVFilterFormatsConfig }
%struct.AVChannelLayout = type { i32, i32, %union.anon.1, ptr }
%union.anon.1 = type { i64 }
%struct.AVRational = type { i32, i32 }
%struct.AVFilterFormatsConfig = type { ptr, ptr, ptr, ptr, ptr }
%struct.AVPixFmtDescriptor = type { ptr, i8, i8, i8, i64, [4 x %struct.AVComponentDescriptor], ptr }
%struct.AVComponentDescriptor = type { i32, i32, i32, i32, i32 }

; Function Attrs: cold nounwind optsize uwtable
define internal i32 @config_output(ptr noundef %0) #0 {
  %2 = alloca i32, align 4
  %3 = alloca ptr, align 8
  %4 = alloca ptr, align 8
  %5 = alloca ptr, align 8
  %6 = alloca ptr, align 8
  %7 = alloca ptr, align 8
  %8 = alloca i32, align 4
  %9 = alloca i32, align 4
  store ptr %0, ptr %3, align 8, !tbaa !24
  call void @llvm.lifetime.start.p0(i64 8, ptr %4) #6
  %10 = load ptr, ptr %3, align 8, !tbaa !24
  %11 = getelementptr inbounds nuw %struct.AVFilterLink, ptr %10, i32 0, i32 5
  %12 = load i32, ptr %11, align 4, !tbaa !57
  %13 = call ptr @av_pix_fmt_desc_get(i32 noundef %12)
  store ptr %13, ptr %4, align 8, !tbaa !58
  call void @llvm.lifetime.start.p0(i64 8, ptr %5) #6
  %14 = load ptr, ptr %3, align 8, !tbaa !24
  %15 = getelementptr inbounds nuw %struct.AVFilterLink, ptr %14, i32 0, i32 0
  %16 = load ptr, ptr %15, align 8, !tbaa !60
  store ptr %16, ptr %5, align 8, !tbaa !4
  call void @llvm.lifetime.start.p0(i64 8, ptr %6) #6
  %17 = load ptr, ptr %5, align 8, !tbaa !4
  %18 = getelementptr inbounds nuw %struct.AVFilterContext, ptr %17, i32 0, i32 4
  %19 = load ptr, ptr %18, align 8, !tbaa !61
  %20 = getelementptr inbounds ptr, ptr %19, i64 0
  %21 = load ptr, ptr %20, align 8, !tbaa !24
  store ptr %21, ptr %6, align 8, !tbaa !24
  call void @llvm.lifetime.start.p0(i64 8, ptr %7) #6
  %22 = load ptr, ptr %5, align 8, !tbaa !4
  %23 = getelementptr inbounds nuw %struct.AVFilterContext, ptr %22, i32 0, i32 9
  %24 = load ptr, ptr %23, align 8, !tbaa !9
  store ptr %24, ptr %7, align 8, !tbaa !22
  call void @llvm.lifetime.start.p0(i64 4, ptr %8) #6
  %25 = load ptr, ptr %5, align 8, !tbaa !4
  %26 = call i32 @ff_filter_get_nb_threads(ptr noundef %25) #7
  %27 = load ptr, ptr %7, align 8, !tbaa !22
  %28 = getelementptr inbounds nuw %struct.BackgroundkeyContext, ptr %27, i32 0, i32 5
  store i32 %26, ptr %28, align 8, !tbaa !50
  %29 = load ptr, ptr %4, align 8, !tbaa !58
  %30 = getelementptr inbounds nuw %struct.AVPixFmtDescriptor, ptr %29, i32 0, i32 5
  %31 = getelementptr inbounds [4 x %struct.AVComponentDescriptor], ptr %30, i64 0, i64 0
  %32 = getelementptr inbounds nuw %struct.AVComponentDescriptor, ptr %31, i32 0, i32 4
  %33 = load i32, ptr %32, align 8, !tbaa !62
  store i32 %33, ptr %8, align 4, !tbaa !38
  %34 = load i32, ptr %8, align 4, !tbaa !38
  %35 = icmp sle i32 %34, 8
  %36 = select i1 %35, ptr @do_backgroundkey_slice, ptr @do_backgroundkey16_slice
  %37 = load ptr, ptr %7, align 8, !tbaa !22
  %38 = getelementptr inbounds nuw %struct.BackgroundkeyContext, ptr %37, i32 0, i32 11
  store ptr %36, ptr %38, align 8, !tbaa !49
  %39 = load i32, ptr %8, align 4, !tbaa !38
  %40 = shl i32 1, %39
  %41 = sub nsw i32 %40, 1
  %42 = load ptr, ptr %7, align 8, !tbaa !22
  %43 = getelementptr inbounds nuw %struct.BackgroundkeyContext, ptr %42, i32 0, i32 4
  store i32 %41, ptr %43, align 4, !tbaa !64
  %44 = load ptr, ptr %4, align 8, !tbaa !58
  %45 = getelementptr inbounds nuw %struct.AVPixFmtDescriptor, ptr %44, i32 0, i32 2
  %46 = load i8, ptr %45, align 1, !tbaa !65
  %47 = zext i8 %46 to i32
  %48 = load ptr, ptr %7, align 8, !tbaa !22
  %49 = getelementptr inbounds nuw %struct.BackgroundkeyContext, ptr %48, i32 0, i32 6
  store i32 %47, ptr %49, align 4, !tbaa !67
  %50 = load ptr, ptr %4, align 8, !tbaa !58
  %51 = getelementptr inbounds nuw %struct.AVPixFmtDescriptor, ptr %50, i32 0, i32 3
  %52 = load i8, ptr %51, align 2, !tbaa !68
  %53 = zext i8 %52 to i32
  %54 = load ptr, ptr %7, align 8, !tbaa !22
  %55 = getelementptr inbounds nuw %struct.BackgroundkeyContext, ptr %54, i32 0, i32 7
  store i32 %53, ptr %55, align 8, !tbaa !69
  %56 = load ptr, ptr %6, align 8, !tbaa !24
  %57 = getelementptr inbounds nuw %struct.AVFilterLink, ptr %56, i32 0, i32 6
  %58 = load i32, ptr %57, align 8, !tbaa !70
  %59 = sext i32 %58 to i64
  %60 = load ptr, ptr %6, align 8, !tbaa !24
  %61 = getelementptr inbounds nuw %struct.AVFilterLink, ptr %60, i32 0, i32 7
  %62 = load i32, ptr %61, align 4, !tbaa !71
  %63 = sext i32 %62 to i64
  %64 = mul nsw i64 %59, %63
  %65 = load ptr, ptr %7, align 8, !tbaa !22
  %66 = getelementptr inbounds nuw %struct.BackgroundkeyContext, ptr %65, i32 0, i32 4
  %67 = load i32, ptr %66, align 4, !tbaa !64
  %68 = sext i32 %67 to i64
  %69 = mul nsw i64 %64, %68
  %70 = load ptr, ptr %7, align 8, !tbaa !22
  %71 = getelementptr inbounds nuw %struct.BackgroundkeyContext, ptr %70, i32 0, i32 8
  store i64 %69, ptr %71, align 8, !tbaa !54
  %72 = load ptr, ptr %6, align 8, !tbaa !24
  %73 = getelementptr inbounds nuw %struct.AVFilterLink, ptr %72, i32 0, i32 6
  %74 = load i32, ptr %73, align 8, !tbaa !70
  %75 = load ptr, ptr %7, align 8, !tbaa !22
  %76 = getelementptr inbounds nuw %struct.BackgroundkeyContext, ptr %75, i32 0, i32 6
  %77 = load i32, ptr %76, align 4, !tbaa !67
  %78 = ashr i32 %74, %77
  %79 = sext i32 %78 to i64
  %80 = mul nsw i64 2, %79
  %81 = load ptr, ptr %6, align 8, !tbaa !24
  %82 = getelementptr inbounds nuw %struct.AVFilterLink, ptr %81, i32 0, i32 7
  %83 = load i32, ptr %82, align 4, !tbaa !71
  %84 = load ptr, ptr %7, align 8, !tbaa !22
  %85 = getelementptr inbounds nuw %struct.BackgroundkeyContext, ptr %84, i32 0, i32 7
  %86 = load i32, ptr %85, align 8, !tbaa !69
  %87 = ashr i32 %83, %86
  %88 = sext i32 %87 to i64
  %89 = mul nsw i64 %80, %88
  %90 = load ptr, ptr %7, align 8, !tbaa !22
  %91 = getelementptr inbounds nuw %struct.BackgroundkeyContext, ptr %90, i32 0, i32 4
  %92 = load i32, ptr %91, align 4, !tbaa !64
  %93 = sext i32 %92 to i64
  %94 = mul nsw i64 %89, %93
  %95 = load ptr, ptr %7, align 8, !tbaa !22
  %96 = getelementptr inbounds nuw %struct.BackgroundkeyContext, ptr %95, i32 0, i32 8
  %97 = load i64, ptr %96, align 8, !tbaa !54
  %98 = add nsw i64 %97, %94
  store i64 %98, ptr %96, align 8, !tbaa !54
  %99 = load ptr, ptr %7, align 8, !tbaa !22
  %100 = getelementptr inbounds nuw %struct.BackgroundkeyContext, ptr %99, i32 0, i32 5
  %101 = load i32, ptr %100, align 8, !tbaa !50
  %102 = sext i32 %101 to i64
  %103 = call noalias ptr @av_calloc(i64 noundef %102, i64 noundef 8)
  %104 = load ptr, ptr %7, align 8, !tbaa !22
  %105 = getelementptr inbounds nuw %struct.BackgroundkeyContext, ptr %104, i32 0, i32 9
  store ptr %103, ptr %105, align 8, !tbaa !51
  %106 = load ptr, ptr %7, align 8, !tbaa !22
  %107 = getelementptr inbounds nuw %struct.BackgroundkeyContext, ptr %106, i32 0, i32 9
  %108 = load ptr, ptr %107, align 8, !tbaa !51
  %109 = icmp ne ptr %108, null
  br i1 %109, label %111, label %110

110:                                              ; preds = %1
  store i32 -12, ptr %2, align 4
  store i32 1, ptr %9, align 4
  br label %112

111:                                              ; preds = %1
  store i32 0, ptr %2, align 4
  store i32 1, ptr %9, align 4
  br label %112

112:                                              ; preds = %111, %110
  call void @llvm.lifetime.end.p0(i64 4, ptr %8) #6
  call void @llvm.lifetime.end.p0(i64 8, ptr %7) #6
  call void @llvm.lifetime.end.p0(i64 8, ptr %6) #6
  call void @llvm.lifetime.end.p0(i64 8, ptr %5) #6
  call void @llvm.lifetime.end.p0(i64 8, ptr %4) #6
  %113 = load i32, ptr %2, align 4
  ret i32 %113
}