; Function Attrs: cold nounwind optsize uwtable
define internal range(i32 -12, 1) i32 @config_output(ptr noundef readonly captures(none) %0) #0 {
  %2 = getelementptr inbounds nuw i8, ptr %0, i64 36
  %3 = load i32, ptr %2, align 4, !tbaa !53
  %4 = tail call ptr @av_pix_fmt_desc_get(i32 noundef %3) #6
  %5 = load ptr, ptr %0, align 8, !tbaa !54
  %6 = getelementptr inbounds nuw i8, ptr %5, i64 32
  %7 = load ptr, ptr %6, align 8, !tbaa !55
  %8 = load ptr, ptr %7, align 8, !tbaa !51
  %9 = getelementptr inbounds nuw i8, ptr %5, i64 72
  %10 = load ptr, ptr %9, align 8, !tbaa !4
  %11 = tail call i32 @ff_filter_get_nb_threads(ptr noundef %5) #7
  %12 = getelementptr inbounds nuw i8, ptr %10, i64 24
  store i32 %11, ptr %12, align 8, !tbaa !43
  %13 = getelementptr inbounds nuw i8, ptr %4, i64 40
  %14 = load i32, ptr %13, align 8, !tbaa !56
  %15 = icmp slt i32 %14, 9
  %16 = select i1 %15, ptr @do_backgroundkey_slice, ptr @do_backgroundkey16_slice
  %17 = getelementptr inbounds nuw i8, ptr %10, i64 64
  store ptr %16, ptr %17, align 8, !tbaa !42
  %notmask = shl nsw i32 -1, %14
  %18 = xor i32 %notmask, -1
  %19 = getelementptr inbounds nuw i8, ptr %10, i64 20
  store i32 %18, ptr %19, align 4, !tbaa !58
  %20 = getelementptr inbounds nuw i8, ptr %4, i64 9
  %21 = load i8, ptr %20, align 1, !tbaa !59
  %22 = zext i8 %21 to i32
  %23 = getelementptr inbounds nuw i8, ptr %10, i64 28
  store i32 %22, ptr %23, align 4, !tbaa !61
  %24 = getelementptr inbounds nuw i8, ptr %4, i64 10
  %25 = load i8, ptr %24, align 2, !tbaa !62
  %26 = zext i8 %25 to i32
  %27 = getelementptr inbounds nuw i8, ptr %10, i64 32
  store i32 %26, ptr %27, align 8, !tbaa !63
  %28 = getelementptr inbounds nuw i8, ptr %8, i64 40
  %29 = load i32, ptr %28, align 8, !tbaa !64
  %30 = sext i32 %29 to i64
  %31 = getelementptr inbounds nuw i8, ptr %8, i64 44
  %32 = load i32, ptr %31, align 4, !tbaa !65
  %33 = sext i32 %32 to i64
  %34 = mul nsw i64 %33, %30
  %35 = zext nneg i32 %18 to i64
  %36 = getelementptr inbounds nuw i8, ptr %10, i64 40
  %37 = ashr i32 %29, %22
  %38 = sext i32 %37 to i64
  %39 = shl nsw i64 %38, 1
  %40 = ashr i32 %32, %26
  %41 = sext i32 %40 to i64
  %42 = mul nsw i64 %39, %41
  %43 = add i64 %42, %34
  %44 = mul i64 %43, %35
  store i64 %44, ptr %36, align 8, !tbaa !45
  %45 = sext i32 %11 to i64
  %46 = tail call noalias ptr @av_calloc(i64 noundef %45, i64 noundef 8) #6
  %47 = getelementptr inbounds nuw i8, ptr %10, i64 48
  store ptr %46, ptr %47, align 8, !tbaa !44
  %.not = icmp eq ptr %46, null
  %. = select i1 %.not, i32 -12, i32 0
  ret i32 %.
}